target datalayout = "e-m:e-p270:32:32-p271:32:32-p272:64:64-i64:64-i128:128-f80:128-n8:16:32:64-S128"
target triple = "x86_64-pc-linux-gnu"

; Function Attrs: inlinehint nounwind sspstrong willreturn memory(none) uwtable
define internal zeroext i1 @RB_NIL_P(i64 noundef %0) #10 {
  %2 = alloca i64, align 8
  store i64 %0, ptr %2, align 8, !tbaa !12
  %3 = load i64, ptr %2, align 8, !tbaa !12
  %4 = icmp eq i64 %3, 4
  ret i1 %4
}

; Function Attrs: nounwind sspstrong uwtable
define dso_local void @rb_econv_check_error(ptr noundef %0) #0 {
  %2 = alloca ptr, align 8
  %3 = alloca i64, align 8
  store ptr %0, ptr %2, align 8, !tbaa !30
  call void @llvm.lifetime.start.p0(i64 8, ptr %3) #25
  %4 = load ptr, ptr %2, align 8, !tbaa !30
  %5 = call i64 @make_econv_exception(ptr noundef %4)
  store i64 %5, ptr %3, align 8, !tbaa !12
  %6 = load i64, ptr %3, align 8, !tbaa !12
  %7 = call zeroext i1 @RB_NIL_P(i64 noundef %6) #31
  br i1 %7, label %8, label %9

8:                                                ; preds = %1
  call void @llvm.lifetime.end.p0(i64 8, ptr %3) #25
  ret void

9:                                                ; preds = %1
  %10 = load i64, ptr %3, align 8, !tbaa !12
  call void @rb_exc_raise(i64 noundef %10) #26
  unreachable
}