; Function Attrs: nounwind sspstrong uwtable
define dso_local void @rb_econv_check_error(ptr noundef readonly captures(none) %0) local_unnamed_addr #0 {
  %2 = tail call fastcc i64 @make_econv_exception(ptr noundef %0)
  %3 = icmp eq i64 %2, 4
  br i1 %3, label %4, label %5

4:                                                ; preds = %1
  ret void

5:                                                ; preds = %1
  tail call void @rb_exc_raise(i64 noundef %2) #23
  unreachable
}